target datalayout = "e-m:e-p270:32:32-p271:32:32-p272:64:64-i64:64-i128:128-f80:128-n8:16:32:64-S128"
target triple = "x86_64-unknown-linux-gnu"

%"class.hermes::parser::detail::JSParserImpl" = type { ptr, ptr, %"class.hermes::parser::JSLexer", ptr, i32, ptr, i32, i8, i8, i8, %"class.llvh::SmallVector.15", i32, i8, i8, ptr, ptr, ptr, ptr, ptr, ptr, ptr, ptr, ptr, ptr, ptr, ptr, ptr, ptr, ptr, ptr, ptr, ptr, ptr, ptr, ptr, ptr, ptr, ptr, ptr, ptr, ptr, ptr, ptr, ptr, ptr, ptr, ptr, ptr, ptr, ptr, ptr, ptr, ptr, ptr, ptr, ptr, ptr, ptr, ptr, ptr, ptr, ptr, ptr, ptr, ptr, ptr, ptr, ptr, ptr, ptr, ptr, ptr, ptr, ptr, ptr, ptr, ptr, ptr, ptr, ptr, ptr, ptr, ptr, ptr, ptr, [122 x ptr] }
%"class.hermes::parser::JSLexer" = type { ptr, ptr, i32, %"class.std::unique_ptr.2", ptr, ptr, i8, i8, i8, i8, [4 x i8], %"class.hermes::parser::Token", %"class.llvh::SMLoc", ptr, ptr, ptr, i8, %"class.llvh::SmallString", %"class.llvh::SmallString", [46 x ptr], %"class.std::vector", %"class.std::vector.10" }
%"class.std::unique_ptr.2" = type { %"struct.std::__uniq_ptr_data.3" }
%"struct.std::__uniq_ptr_data.3" = type { %"class.std::__uniq_ptr_impl.4" }
%"class.std::__uniq_ptr_impl.4" = type { %"class.std::tuple.5" }
%"class.std::tuple.5" = type { %"struct.std::_Tuple_impl.6" }
%"struct.std::_Tuple_impl.6" = type { %"struct.std::_Head_base.9" }
%"struct.std::_Head_base.9" = type { ptr }
%"class.hermes::parser::Token" = type <{ i32, [4 x i8], %"class.llvh::SMRange", double, ptr, ptr, ptr, ptr, i8, [7 x i8] }>
%"class.llvh::SMRange" = type { %"class.llvh::SMLoc", %"class.llvh::SMLoc" }
%"class.llvh::SMLoc" = type { ptr }
%"class.llvh::SmallString" = type { %"class.llvh::SmallVector" }
%"class.llvh::SmallVector" = type { %"class.llvh::SmallVectorImpl", %"struct.llvh::SmallVectorStorage" }
%"class.llvh::SmallVectorImpl" = type { %"class.llvh::SmallVectorTemplateBase" }
%"class.llvh::SmallVectorTemplateBase" = type { %"class.llvh::SmallVectorTemplateCommon" }
%"class.llvh::SmallVectorTemplateCommon" = type { %"class.llvh::SmallVectorBase" }
%"class.llvh::SmallVectorBase" = type { ptr, i32, i32 }
%"struct.llvh::SmallVectorStorage" = type { [256 x %"struct.llvh::AlignedCharArrayUnion"] }
%"struct.llvh::AlignedCharArrayUnion" = type { %"struct.llvh::AlignedCharArray" }
%"struct.llvh::AlignedCharArray" = type { [1 x i8] }
%"class.std::vector" = type { %"struct.std::_Vector_base" }
%"struct.std::_Vector_base" = type { %"struct.std::_Vector_base<hermes::parser::StoredComment, std::allocator<hermes::parser::StoredComment>>::_Vector_impl" }
%"struct.std::_Vector_base<hermes::parser::StoredComment, std::allocator<hermes::parser::StoredComment>>::_Vector_impl" = type { %"struct.std::_Vector_base<hermes::parser::StoredComment, std::allocator<hermes::parser::StoredComment>>::_Vector_impl_data" }
%"struct.std::_Vector_base<hermes::parser::StoredComment, std::allocator<hermes::parser::StoredComment>>::_Vector_impl_data" = type { ptr, ptr, ptr }
%"class.std::vector.10" = type { %"struct.std::_Vector_base.11" }
%"struct.std::_Vector_base.11" = type { %"struct.std::_Vector_base<hermes::parser::StoredToken, std::allocator<hermes::parser::StoredToken>>::_Vector_impl" }
%"struct.std::_Vector_base<hermes::parser::StoredToken, std::allocator<hermes::parser::StoredToken>>::_Vector_impl" = type { %"struct.std::_Vector_base<hermes::parser::StoredToken, std::allocator<hermes::parser::StoredToken>>::_Vector_impl_data" }
%"struct.std::_Vector_base<hermes::parser::StoredToken, std::allocator<hermes::parser::StoredToken>>::_Vector_impl_data" = type { ptr, ptr, ptr }
%"class.llvh::SmallVector.15" = type { %"class.llvh::SmallVectorImpl.16", %"struct.llvh::SmallVectorStorage.19" }
%"class.llvh::SmallVectorImpl.16" = type { %"class.llvh::SmallVectorTemplateBase.17" }
%"class.llvh::SmallVectorTemplateBase.17" = type { %"class.llvh::SmallVectorTemplateCommon.18" }
%"class.llvh::SmallVectorTemplateCommon.18" = type { %"class.llvh::SmallVectorBase" }
%"struct.llvh::SmallVectorStorage.19" = type { [1 x %"struct.llvh::AlignedCharArrayUnion.20"] }
%"struct.llvh::AlignedCharArrayUnion.20" = type { %"struct.llvh::AlignedCharArray.21" }
%"struct.llvh::AlignedCharArray.21" = type { [8 x i8] }
%"struct.std::_Rb_tree_header" = type { %"struct.std::_Rb_tree_node_base", i64 }
%"struct.std::_Rb_tree_node_base" = type { i32, ptr, ptr, ptr }
%"class.std::__shared_count" = type { ptr }
%"class.llvh::StringRef" = type { ptr, i64 }
%"class.llvh::Optional" = type { %"struct.llvh::optional_detail::OptionalStorage" }
%"struct.llvh::optional_detail::OptionalStorage" = type { %"struct.llvh::AlignedCharArrayUnion.99", i8, [7 x i8] }
%"struct.llvh::AlignedCharArrayUnion.99" = type { %"struct.llvh::AlignedCharArray.21" }
%"class.hermes::PerfSection" = type { i8 }
%"class.hermes::OptValue" = type <{ i32, i8, [3 x i8] }>
%"class.hermes::SourceErrorManager" = type { %"class.llvh::SourceMgr", %"struct.hermes::SourceErrorOutputOptions", %"class.std::shared_ptr.80", %"struct.hermes::SourceErrorManager::FindLineCache", %"struct.hermes::StringSetVector", [4 x i32], i32, i8, %"class.llvh::SmallBitVector", %"class.llvh::SmallBitVector", %"class.hermes::OptValue", i8, [7 x i8], %"class.llvh::DenseMap.86", %"class.llvh::DenseMap.86", i32, ptr, %"class.std::vector.89", %"class.std::vector.94" }
%"class.llvh::SourceMgr" = type { %"class.std::vector.62", %"class.std::map.67", i32, %"class.std::vector.75", ptr, ptr }
%"class.std::vector.62" = type { %"struct.std::_Vector_base.63" }
%"struct.std::_Vector_base.63" = type { %"struct.std::_Vector_base<llvh::SourceMgr::SrcBuffer, std::allocator<llvh::SourceMgr::SrcBuffer>>::_Vector_impl" }
%"struct.std::_Vector_base<llvh::SourceMgr::SrcBuffer, std::allocator<llvh::SourceMgr::SrcBuffer>>::_Vector_impl" = type { %"struct.std::_Vector_base<llvh::SourceMgr::SrcBuffer, std::allocator<llvh::SourceMgr::SrcBuffer>>::_Vector_impl_data" }
%"struct.std::_Vector_base<llvh::SourceMgr::SrcBuffer, std::allocator<llvh::SourceMgr::SrcBuffer>>::_Vector_impl_data" = type { ptr, ptr, ptr }
%"class.std::map.67" = type { %"class.std::_Rb_tree.68" }
%"class.std::_Rb_tree.68" = type { %"struct.std::_Rb_tree<const char *, std::pair<const char *const, unsigned int>, std::_Select1st<std::pair<const char *const, unsigned int>>, std::less<const char *>>::_Rb_tree_impl" }
%"struct.std::_Rb_tree<const char *, std::pair<const char *const, unsigned int>, std::_Select1st<std::pair<const char *const, unsigned int>>, std::less<const char *>>::_Rb_tree_impl" = type { %"struct.std::_Rb_tree_key_compare.72", %"struct.std::_Rb_tree_header" }
%"struct.std::_Rb_tree_key_compare.72" = type { %"struct.std::less.73" }
%"struct.std::less.73" = type { i8 }
%"class.std::vector.75" = type { %"struct.std::_Vector_base.76" }
%"struct.std::_Vector_base.76" = type { %"struct.std::_Vector_base<std::__cxx11::basic_string<char>, std::allocator<std::__cxx11::basic_string<char>>>::_Vector_impl" }
%"struct.std::_Vector_base<std::__cxx11::basic_string<char>, std::allocator<std::__cxx11::basic_string<char>>>::_Vector_impl" = type { %"struct.std::_Vector_base<std::__cxx11::basic_string<char>, std::allocator<std::__cxx11::basic_string<char>>>::_Vector_impl_data" }
%"struct.std::_Vector_base<std::__cxx11::basic_string<char>, std::allocator<std::__cxx11::basic_string<char>>>::_Vector_impl_data" = type { ptr, ptr, ptr }
%"struct.hermes::SourceErrorOutputOptions" = type { i8, i64 }
%"class.std::shared_ptr.80" = type { %"class.std::__shared_ptr.81" }
%"class.std::__shared_ptr.81" = type { ptr, %"class.std::__shared_count" }
%"struct.hermes::SourceErrorManager::FindLineCache" = type { i32, i32, %"class.llvh::StringRef", %"class.llvh::StringRef" }
%"struct.hermes::StringSetVector" = type { %"class.std::deque", %"class.llvh::DenseMap.83" }
%"class.std::deque" = type { %"class.std::_Deque_base" }
%"class.std::_Deque_base" = type { %"struct.std::_Deque_base<std::__cxx11::basic_string<char>, std::allocator<std::__cxx11::basic_string<char>>>::_Deque_impl" }
%"struct.std::_Deque_base<std::__cxx11::basic_string<char>, std::allocator<std::__cxx11::basic_string<char>>>::_Deque_impl" = type { %"struct.std::_Deque_base<std::__cxx11::basic_string<char>, std::allocator<std::__cxx11::basic_string<char>>>::_Deque_impl_data" }
%"struct.std::_Deque_base<std::__cxx11::basic_string<char>, std::allocator<std::__cxx11::basic_string<char>>>::_Deque_impl_data" = type { ptr, i64, %"struct.std::_Deque_iterator", %"struct.std::_Deque_iterator" }
%"struct.std::_Deque_iterator" = type { ptr, ptr, ptr, ptr }
%"class.llvh::DenseMap.83" = type <{ ptr, i32, i32, i32, [4 x i8] }>
%"class.llvh::SmallBitVector" = type { i64 }
%"class.llvh::DenseMap.86" = type <{ ptr, i32, i32, i32, [4 x i8] }>
%"class.std::vector.89" = type { %"struct.std::_Vector_base.90" }
%"struct.std::_Vector_base.90" = type { %"struct.std::_Vector_base<hermes::SourceErrorManager::BufferedMessage, std::allocator<hermes::SourceErrorManager::BufferedMessage>>::_Vector_impl" }
%"struct.std::_Vector_base<hermes::SourceErrorManager::BufferedMessage, std::allocator<hermes::SourceErrorManager::BufferedMessage>>::_Vector_impl" = type { %"struct.std::_Vector_base<hermes::SourceErrorManager::BufferedMessage, std::allocator<hermes::SourceErrorManager::BufferedMessage>>::_Vector_impl_data" }
%"struct.std::_Vector_base<hermes::SourceErrorManager::BufferedMessage, std::allocator<hermes::SourceErrorManager::BufferedMessage>>::_Vector_impl_data" = type { ptr, ptr, ptr }
%"class.std::vector.94" = type { %"struct.std::_Vector_base.95" }
%"struct.std::_Vector_base.95" = type { %"struct.std::_Vector_base<hermes::SourceErrorManager::MessageData, std::allocator<hermes::SourceErrorManager::MessageData>>::_Vector_impl" }
%"struct.std::_Vector_base<hermes::SourceErrorManager::MessageData, std::allocator<hermes::SourceErrorManager::MessageData>>::_Vector_impl" = type { %"struct.std::_Vector_base<hermes::SourceErrorManager::MessageData, std::allocator<hermes::SourceErrorManager::MessageData>>::_Vector_impl_data" }
%"struct.std::_Vector_base<hermes::SourceErrorManager::MessageData, std::allocator<hermes::SourceErrorManager::MessageData>>::_Vector_impl_data" = type { ptr, ptr, ptr }

@.str.71 = private unnamed_addr constant [19 x i8] c"Parsing JavaScript\00", align 1

; Function Attrs: mustprogress nounwind uwtable
define linkonce_odr hidden void @_ZN4llvh15optional_detail15OptionalStorageIPN6hermes6ESTree11ProgramNodeELb1EEC2ERKS5_(ptr noundef nonnull align 8 dereferenceable(9) %this, ptr noundef nonnull align 8 dereferenceable(8) %y) unnamed_addr #0 comdat align 2 {
entry:
  %this.addr = alloca ptr, align 8
  %y.addr = alloca ptr, align 8
  store ptr %this, ptr %this.addr, align 8
  store ptr %y, ptr %y.addr, align 8
  %this1 = load ptr, ptr %this.addr, align 8
  %hasVal = getelementptr inbounds %"struct.llvh::optional_detail::OptionalStorage", ptr %this1, i32 0, i32 1
  store i8 1, ptr %hasVal, align 8
  %storage2 = getelementptr inbounds %"struct.llvh::optional_detail::OptionalStorage", ptr %this1, i32 0, i32 0
  %buffer = getelementptr inbounds %"struct.llvh::AlignedCharArray.21", ptr %storage2, i32 0, i32 0
  %arraydecay = getelementptr inbounds [8 x i8], ptr %buffer, i64 0, i64 0
  %0 = load ptr, ptr %y.addr, align 8
  %1 = load ptr, ptr %0, align 8
  store ptr %1, ptr %arraydecay, align 8
  ret void
}

; Function Attrs: mustprogress nounwind uwtable
define linkonce_odr hidden noundef ptr @_ZN4llvh8OptionalIPN6hermes6ESTree11ProgramNodeEE10getPointerEv(ptr noundef nonnull align 8 dereferenceable(16) %this) #0 comdat align 2 {
entry:
  %this.addr = alloca ptr, align 8
  store ptr %this, ptr %this.addr, align 8
  %this1 = load ptr, ptr %this.addr, align 8
  %Storage = getelementptr inbounds %"class.llvh::Optional", ptr %this1, i32 0, i32 0
  %storage = getelementptr inbounds %"struct.llvh::optional_detail::OptionalStorage", ptr %Storage, i32 0, i32 0
  %buffer = getelementptr inbounds %"struct.llvh::AlignedCharArray.21", ptr %storage, i32 0, i32 0
  %arraydecay = getelementptr inbounds [8 x i8], ptr %buffer, i64 0, i64 0
  ret ptr %arraydecay
}

; Function Attrs: mustprogress nounwind uwtable
define linkonce_odr hidden noundef i32 @_ZNK6hermes18SourceErrorManager15getMessageCountENS0_8DiagKindE(ptr noundef nonnull align 8 dereferenceable(464) %this, i32 noundef %dk) #0 comdat align 2 {
entry:
  %this.addr = alloca ptr, align 8
  %dk.addr = alloca i32, align 4
  store ptr %this, ptr %this.addr, align 8
  store i32 %dk, ptr %dk.addr, align 4
  %this1 = load ptr, ptr %this.addr, align 8
  %messageCount_ = getelementptr inbounds %"class.hermes::SourceErrorManager", ptr %this1, i32 0, i32 5
  %0 = load i32, ptr %dk.addr, align 4
  %idxprom = zext i32 %0 to i64
  %arrayidx = getelementptr inbounds [4 x i32], ptr %messageCount_, i64 0, i64 %idxprom
  %1 = load i32, ptr %arrayidx, align 4
  ret i32 %1
}

; Function Attrs: mustprogress nounwind uwtable
define linkonce_odr hidden void @_ZN4llvh15optional_detail15OptionalStorageIPN6hermes6ESTree11ProgramNodeELb1EEC2Ev(ptr noundef nonnull align 8 dereferenceable(9) %this) unnamed_addr #0 comdat align 2 {
entry:
  %this.addr = alloca ptr, align 8
  store ptr %this, ptr %this.addr, align 8
  %this1 = load ptr, ptr %this.addr, align 8
  %hasVal = getelementptr inbounds %"struct.llvh::optional_detail::OptionalStorage", ptr %this1, i32 0, i32 1
  store i8 0, ptr %hasVal, align 8
  ret void
}

; Function Attrs: mustprogress nounwind uwtable
define linkonce_odr hidden void @_ZN4llvh8OptionalIPN6hermes6ESTree11ProgramNodeEEC2ERKS4_(ptr noundef nonnull align 8 dereferenceable(16) %this, ptr noundef nonnull align 8 dereferenceable(8) %y) unnamed_addr #0 comdat align 2 {
entry:
  %this.addr = alloca ptr, align 8
  %y.addr = alloca ptr, align 8
  store ptr %this, ptr %this.addr, align 8
  store ptr %y, ptr %y.addr, align 8
  %this1 = load ptr, ptr %this.addr, align 8
  %Storage = getelementptr inbounds %"class.llvh::Optional", ptr %this1, i32 0, i32 0
  %0 = load ptr, ptr %y.addr, align 8
  call void @_ZN4llvh15optional_detail15OptionalStorageIPN6hermes6ESTree11ProgramNodeELb1EEC2ERKS5_(ptr noundef nonnull align 8 dereferenceable(9) %Storage, ptr noundef nonnull align 8 dereferenceable(8) %0)
  ret void
}

; Function Attrs: mustprogress nounwind uwtable
define linkonce_odr hidden noundef nonnull align 8 dereferenceable(8) ptr @_ZNR4llvh8OptionalIPN6hermes6ESTree11ProgramNodeEE8getValueEv(ptr noundef nonnull align 8 dereferenceable(16) %this) #0 comdat align 2 {
entry:
  %this.addr = alloca ptr, align 8
  store ptr %this, ptr %this.addr, align 8
  %this1 = load ptr, ptr %this.addr, align 8
  %call = call noundef ptr @_ZN4llvh8OptionalIPN6hermes6ESTree11ProgramNodeEE10getPointerEv(ptr noundef nonnull align 8 dereferenceable(16) %this1)
  ret ptr %call
}

; Function Attrs: mustprogress nounwind uwtable
define linkonce_odr hidden noundef i32 @_ZNK6hermes18SourceErrorManager13getErrorCountEv(ptr noundef nonnull align 8 dereferenceable(464) %this) #0 comdat align 2 {
entry:
  %this.addr = alloca ptr, align 8
  store ptr %this, ptr %this.addr, align 8
  %this1 = load ptr, ptr %this.addr, align 8
  %call = call noundef i32 @_ZNK6hermes18SourceErrorManager15getMessageCountENS0_8DiagKindE(ptr noundef nonnull align 8 dereferenceable(464) %this1, i32 noundef 0)
  ret i32 %call
}

; Function Attrs: mustprogress nounwind uwtable
define linkonce_odr hidden noundef nonnull align 8 dereferenceable(464) ptr @_ZN6hermes6parser7JSLexer12getSourceMgrEv(ptr noundef nonnull align 8 dereferenceable(1128) %this) #0 comdat align 2 {
entry:
  %this.addr = alloca ptr, align 8
  store ptr %this, ptr %this.addr, align 8
  %this1 = load ptr, ptr %this.addr, align 8
  %sm_ = getelementptr inbounds %"class.hermes::parser::JSLexer", ptr %this1, i32 0, i32 0
  %0 = load ptr, ptr %sm_, align 8
  ret ptr %0
}

; Function Attrs: mustprogress nounwind uwtable
define linkonce_odr hidden void @_ZN4llvh8OptionalIPN6hermes6ESTree11ProgramNodeEEC2ENS_8NoneTypeE(ptr noundef nonnull align 8 dereferenceable(16) %this, i32 noundef %0) unnamed_addr #0 comdat align 2 {
entry:
  %this.addr = alloca ptr, align 8
  %.addr = alloca i32, align 4
  store ptr %this, ptr %this.addr, align 8
  store i32 %0, ptr %.addr, align 4
  %this1 = load ptr, ptr %this.addr, align 8
  %Storage = getelementptr inbounds %"class.llvh::Optional", ptr %this1, i32 0, i32 0
  call void @_ZN4llvh15optional_detail15OptionalStorageIPN6hermes6ESTree11ProgramNodeELb1EEC2Ev(ptr noundef nonnull align 8 dereferenceable(9) %Storage) #10
  ret void
}

; Function Attrs: mustprogress nounwind uwtable
define linkonce_odr hidden noundef zeroext i1 @_ZNK4llvh8OptionalIPN6hermes6ESTree11ProgramNodeEEcvbEv(ptr noundef nonnull align 8 dereferenceable(16) %this) #0 comdat align 2 {
entry:
  %this.addr = alloca ptr, align 8
  store ptr %this, ptr %this.addr, align 8
  %this1 = load ptr, ptr %this.addr, align 8
  %Storage = getelementptr inbounds %"class.llvh::Optional", ptr %this1, i32 0, i32 0
  %hasVal = getelementptr inbounds %"struct.llvh::optional_detail::OptionalStorage", ptr %Storage, i32 0, i32 1
  %0 = load i8, ptr %hasVal, align 8
  %tobool = trunc i8 %0 to i1
  ret i1 %tobool
}

; Function Attrs: mustprogress nounwind uwtable
define linkonce_odr hidden void @_ZN6hermes11PerfSectionC2EPKcS2_(ptr noundef nonnull align 1 dereferenceable(1) %this, ptr noundef %name, ptr noundef %category) unnamed_addr #0 comdat align 2 {
entry:
  %this.addr = alloca ptr, align 8
  %name.addr = alloca ptr, align 8
  %category.addr = alloca ptr, align 8
  store ptr %this, ptr %this.addr, align 8
  store ptr %name, ptr %name.addr, align 8
  store ptr %category, ptr %category.addr, align 8
  ret void
}

; Function Attrs: mustprogress nounwind uwtable
define hidden { i64, i8 } @_ZN6hermes6parser6detail12JSParserImpl5parseEv(ptr noundef nonnull align 8 dereferenceable(2752) %this) #0 align 2 {
entry:
  %retval = alloca %"class.llvh::Optional", align 8
  %this.addr = alloca ptr, align 8
  %parsing = alloca %"class.hermes::PerfSection", align 1
  %res = alloca %"class.llvh::Optional", align 8
  store ptr %this, ptr %this.addr, align 8
  %this1 = load ptr, ptr %this.addr, align 8
  call void @_ZN6hermes11PerfSectionC2EPKcS2_(ptr noundef nonnull align 1 dereferenceable(1) %parsing, ptr noundef @.str.71, ptr noundef null)
  %lexer_ = getelementptr inbounds %"class.hermes::parser::detail::JSParserImpl", ptr %this1, i32 0, i32 2
  %call = call noundef ptr @_ZN6hermes6parser7JSLexer7advanceENS1_14GrammarContextE(ptr noundef nonnull align 8 dereferenceable(1128) %lexer_, i32 noundef 0)
  %tok_ = getelementptr inbounds %"class.hermes::parser::detail::JSParserImpl", ptr %this1, i32 0, i32 3
  store ptr %call, ptr %tok_, align 8
  %call2 = call { i64, i8 } @_ZN6hermes6parser6detail12JSParserImpl12parseProgramEv(ptr noundef nonnull align 8 dereferenceable(2752) %this1)
  %coerce.dive = getelementptr inbounds %"class.llvh::Optional", ptr %res, i32 0, i32 0
  %0 = getelementptr inbounds { i64, i8 }, ptr %coerce.dive, i32 0, i32 0
  %1 = extractvalue { i64, i8 } %call2, 0
  store i64 %1, ptr %0, align 8
  %2 = getelementptr inbounds { i64, i8 }, ptr %coerce.dive, i32 0, i32 1
  %3 = extractvalue { i64, i8 } %call2, 1
  store i8 %3, ptr %2, align 8
  %call3 = call noundef zeroext i1 @_ZNK4llvh8OptionalIPN6hermes6ESTree11ProgramNodeEEcvbEv(ptr noundef nonnull align 8 dereferenceable(16) %res)
  br i1 %call3, label %if.end, label %if.then

if.then:                                          ; preds = %entry
  call void @_ZN4llvh8OptionalIPN6hermes6ESTree11ProgramNodeEEC2ENS_8NoneTypeE(ptr noundef nonnull align 8 dereferenceable(16) %retval, i32 noundef 1)
  br label %return

if.end:                                           ; preds = %entry
  %lexer_4 = getelementptr inbounds %"class.hermes::parser::detail::JSParserImpl", ptr %this1, i32 0, i32 2
  %call5 = call noundef nonnull align 8 dereferenceable(464) ptr @_ZN6hermes6parser7JSLexer12getSourceMgrEv(ptr noundef nonnull align 8 dereferenceable(1128) %lexer_4)
  %call6 = call noundef i32 @_ZNK6hermes18SourceErrorManager13getErrorCountEv(ptr noundef nonnull align 8 dereferenceable(464) %call5)
  %cmp = icmp ne i32 %call6, 0
  br i1 %cmp, label %if.then7, label %if.end8

if.then7:                                         ; preds = %if.end
  call void @_ZN4llvh8OptionalIPN6hermes6ESTree11ProgramNodeEEC2ENS_8NoneTypeE(ptr noundef nonnull align 8 dereferenceable(16) %retval, i32 noundef 1)
  br label %return

if.end8:                                          ; preds = %if.end
  %call9 = call noundef nonnull align 8 dereferenceable(8) ptr @_ZNR4llvh8OptionalIPN6hermes6ESTree11ProgramNodeEE8getValueEv(ptr noundef nonnull align 8 dereferenceable(16) %res)
  call void @_ZN4llvh8OptionalIPN6hermes6ESTree11ProgramNodeEEC2ERKS4_(ptr noundef nonnull align 8 dereferenceable(16) %retval, ptr noundef nonnull align 8 dereferenceable(8) %call9)
  br label %return

return:                                           ; preds = %if.end8, %if.then7, %if.then
  %coerce.dive10 = getelementptr inbounds %"class.llvh::Optional", ptr %retval, i32 0, i32 0
  %4 = load { i64, i8 }, ptr %coerce.dive10, align 8
  ret { i64, i8 } %4
}